; Function Attrs: nounwind uwtable
define internal fastcc noundef ptr @r_ref_insert(ptr noundef returned %0, i64 noundef range(i64 -9223372036854775808, 2147483646) %1, i32 noundef range(i32 0, -127) %2, ptr noundef nonnull readonly captures(none) %3) unnamed_addr #0 {
  %5 = icmp ne ptr %0, null
  %6 = icmp ne i32 %2, 0
  %or.cond = and i1 %5, %6
  br i1 %or.cond, label %7, label %Py_DECREF.exit

7:                                                ; preds = %4
  %8 = getelementptr inbounds nuw i8, ptr %3, i64 56
  %9 = load ptr, ptr %8, align 8, !tbaa !51
  %10 = getelementptr inbounds nuw i8, ptr %9, i64 24
  %11 = load ptr, ptr %10, align 8, !tbaa !60
  %12 = getelementptr ptr, ptr %11, i64 %1
  %13 = load ptr, ptr %12, align 8, !tbaa !29
  %14 = load i32, ptr %0, align 8, !tbaa !25
  %15 = icmp slt i32 %14, 0
  br i1 %15, label %_Py_NewRef.exit, label %16

16:                                               ; preds = %7
  %17 = add nuw i32 %14, 1
  store i32 %17, ptr %0, align 8, !tbaa !25
  %.val.pre = load ptr, ptr %10, align 8, !tbaa !60
  br label %_Py_NewRef.exit

_Py_NewRef.exit:                                  ; preds = %7, %16
  %.val = phi ptr [ %11, %7 ], [ %.val.pre, %16 ]
  %18 = getelementptr ptr, ptr %.val, i64 %1
  store ptr %0, ptr %18, align 8, !tbaa !29
  %19 = load i32, ptr %13, align 8, !tbaa !25
  %.not.i = icmp sgt i32 %19, -1
  br i1 %.not.i, label %20, label %Py_DECREF.exit

20:                                               ; preds = %_Py_NewRef.exit
  %21 = add nsw i32 %19, -1
  store i32 %21, ptr %13, align 8, !tbaa !25
  %22 = icmp eq i32 %21, 0
  br i1 %22, label %23, label %Py_DECREF.exit

23:                                               ; preds = %20
  tail call void @_Py_Dealloc(ptr noundef nonnull %13) #11
  br label %Py_DECREF.exit

Py_DECREF.exit:                                   ; preds = %23, %20, %_Py_NewRef.exit, %4
  ret ptr %0
}